(lp0
(dp1
Vdomain
p2
V.weibo.com
p3
sVname
p4
VULV
p5
sVexpires
p6
V\u5468\u4e00, 30 1\u6708 2017 22:50:26 GMT
p7
sVvalue
p8
V1454712626092:1:1:1:2323619094677.2695.1454712625941:
p9
sVexpiry
p10
I1485816626
sVpath
p11
V/
p12
sVhttponly
p13
I00
sVsecure
p14
I00
sa(dp15
Vdomain
p16
V.weibo.com
p17
sVname
p18
VSINAGLOBAL
p19
sVexpires
p20
V\u5468\u4e00, 02 2\u6708 2026 22:50:25 GMT
p21
sVvalue
p22
V2323619094677.2695.1454712625941
p23
sVexpiry
p24
I1770072625
sVpath
p25
g12
sVhttponly
p26
I00
sVsecure
p27
I00
sa(dp28
Vdomain
p29
V.weibo.com
p30
sVname
p31
VApache
p32
sVvalue
p33
V2323619094677.2695.1454712625941
p34
sVpath
p35
g12
sVhttponly
p36
I00
sVsecure
p37
I00
sa(dp38
Vdomain
p39
V.weibo.com
p40
sVname
p41
V_s_tentry
p42
sVvalue
p43
V-
p44
sVpath
p45
g12
sVhttponly
p46
I00
sVsecure
p47
I00
sa(dp48
Vdomain
p49
Vweibo.com
p50
sVname
p51
VTC-Ugrow-G0
p52
sVvalue
p53
Ve66b2e50a7e7f417f6cc12eec600f517
p54
sVpath
p55
g12
sVhttponly
p56
I00
sVsecure
p57
I00
sa(dp58
Vdomain
p59
V.weibo.com
p60
sVname
p61
Vlogin_sid_t
p62
sVvalue
p63
V99a00c2f56f44cd313056963681b2e50
p64
sVpath
p65
g12
sVhttponly
p66
I00
sVsecure
p67
I00
sa.